target datalayout = "e-m:e-p270:32:32-p271:32:32-p272:64:64-i64:64-i128:128-f80:128-n8:16:32:64-S128"
target triple = "x86_64-pc-linux-gnu"

%"struct.faiss::IndexBinaryFlat" = type <{ %"struct.faiss::IndexBinary", %"class.std::vector", i8, [7 x i8], i64, i32, [4 x i8] }>
%"struct.faiss::IndexBinary" = type { ptr, i32, i32, i64, i8, i8, i32 }
%"class.std::vector" = type { %"struct.std::_Vector_base" }
%"struct.std::_Vector_base" = type { %"struct.std::_Vector_base<unsigned char, std::allocator<unsigned char>>::_Vector_impl" }
%"struct.std::_Vector_base<unsigned char, std::allocator<unsigned char>>::_Vector_impl" = type { %"struct.std::_Vector_base<unsigned char, std::allocator<unsigned char>>::_Vector_impl_data" }
%"struct.std::_Vector_base<unsigned char, std::allocator<unsigned char>>::_Vector_impl_data" = type { ptr, ptr, ptr }
%"class.std::__cxx11::basic_string" = type { %"struct.std::__cxx11::basic_string<char>::_Alloc_hider", i64, %union.anon }
%"struct.std::__cxx11::basic_string<char>::_Alloc_hider" = type { ptr }
%union.anon = type { i64, [8 x i8] }

@.str.1 = private unnamed_addr constant [63 x i8] c"Error: '%s' failed: search params not supported for this index\00", align 1
@.str.2 = private unnamed_addr constant [8 x i8] c"!params\00", align 1
@.str.3 = private unnamed_addr constant [115 x i8] c"generated/home/dtcxzyw/WorkSpace/Projects/compilers/llvm-opt-benchmark/bench/faiss/faiss/faiss/IndexBinaryFlat.cpp\00", align 1
@_ZTIN5faiss14FaissExceptionE = external constant ptr

; Function Attrs: mustprogress nounwind uwtable
define linkonce_odr noundef ptr @_ZNKSt6vectorIhSaIhEE11_M_data_ptrIhEEPT_S4_(ptr noundef nonnull align 8 dereferenceable(24) %0, ptr noundef %1) #0 comdat align 2 {
  %3 = alloca ptr, align 8
  %4 = alloca ptr, align 8
  store ptr %0, ptr %3, align 8
  store ptr %1, ptr %4, align 8
  %5 = load ptr, ptr %4, align 8
  ret ptr %5
}

; Function Attrs: mustprogress nounwind uwtable
define linkonce_odr noundef ptr @_ZNKSt6vectorIhSaIhEE4dataEv(ptr noundef nonnull align 8 dereferenceable(24) %0) #0 comdat align 2 {
  %2 = alloca ptr, align 8
  store ptr %0, ptr %2, align 8
  %3 = load ptr, ptr %2, align 8
  %4 = getelementptr inbounds %"struct.std::_Vector_base", ptr %3, i32 0, i32 0
  %5 = getelementptr inbounds %"struct.std::_Vector_base<unsigned char, std::allocator<unsigned char>>::_Vector_impl_data", ptr %4, i32 0, i32 0
  %6 = load ptr, ptr %5, align 8
  %7 = call noundef ptr @_ZNKSt6vectorIhSaIhEE11_M_data_ptrIhEEPT_S4_(ptr noundef nonnull align 8 dereferenceable(24) %3, ptr noundef %6) #11
  ret ptr %7
}

; Function Attrs: mustprogress uwtable
define void @_ZNK5faiss15IndexBinaryFlat12range_searchElPKhiPNS_17RangeSearchResultEPKNS_16SearchParametersE(ptr noundef nonnull align 8 dereferenceable(76) %0, i64 noundef %1, ptr noundef %2, i32 noundef %3, ptr noundef %4, ptr noundef %5) unnamed_addr #2 align 2 personality ptr @__gxx_personality_v0 {
  %7 = alloca ptr, align 8
  %8 = alloca i64, align 8
  %9 = alloca ptr, align 8
  %10 = alloca i32, align 4
  %11 = alloca ptr, align 8
  %12 = alloca ptr, align 8
  %13 = alloca %"class.std::__cxx11::basic_string", align 8
  %14 = alloca i32, align 4
  %15 = alloca ptr, align 8
  %16 = alloca i32, align 4
  store ptr %0, ptr %7, align 8
  store i64 %1, ptr %8, align 8
  store ptr %2, ptr %9, align 8
  store i32 %3, ptr %10, align 4
  store ptr %4, ptr %11, align 8
  store ptr %5, ptr %12, align 8
  %17 = load ptr, ptr %7, align 8
  br label %18

18:                                               ; preds = %6
  %19 = load ptr, ptr %12, align 8
  %20 = icmp ne ptr %19, null
  br i1 %20, label %21, label %44

21:                                               ; preds = %18
  br label %22

22:                                               ; preds = %21
  call void @_ZNSt7__cxx1112basic_stringIcSt11char_traitsIcESaIcEEC1Ev(ptr noundef nonnull align 8 dereferenceable(32) %13) #11
  %23 = call i32 (ptr, i64, ptr, ...) @snprintf(ptr noundef null, i64 noundef 0, ptr noundef @.str.1, ptr noundef @.str.2) #11
  store i32 %23, ptr %14, align 4
  %24 = load i32, ptr %14, align 4
  %25 = add nsw i32 %24, 1
  %26 = sext i32 %25 to i64
  invoke void @_ZNSt7__cxx1112basic_stringIcSt11char_traitsIcESaIcEE6resizeEm(ptr noundef nonnull align 8 dereferenceable(32) %13, i64 noundef %26)
          to label %27 unwind label %34

27:                                               ; preds = %22
  %28 = invoke noundef nonnull align 1 dereferenceable(1) ptr @_ZNSt7__cxx1112basic_stringIcSt11char_traitsIcESaIcEEixEm(ptr noundef nonnull align 8 dereferenceable(32) %13, i64 noundef 0)
          to label %29 unwind label %34

29:                                               ; preds = %27
  %30 = call noundef i64 @_ZNKSt7__cxx1112basic_stringIcSt11char_traitsIcESaIcEE4sizeEv(ptr noundef nonnull align 8 dereferenceable(32) %13) #11
  %31 = call i32 (ptr, i64, ptr, ...) @snprintf(ptr noundef %28, i64 noundef %30, ptr noundef @.str.1, ptr noundef @.str.2) #11
  %32 = call ptr @__cxa_allocate_exception(i64 40) #11
  invoke void @_ZN5faiss14FaissExceptionC1ERKNSt7__cxx1112basic_stringIcSt11char_traitsIcESaIcEEEPKcSA_i(ptr noundef nonnull align 8 dereferenceable(40) %32, ptr noundef nonnull align 8 dereferenceable(32) %13, ptr noundef @__PRETTY_FUNCTION__._ZNK5faiss15IndexBinaryFlat12range_searchElPKhiPNS_17RangeSearchResultEPKNS_16SearchParametersE, ptr noundef @.str.3, i32 noundef 112)
          to label %33 unwind label %38

33:                                               ; preds = %29
  invoke void @__cxa_throw(ptr %32, ptr @_ZTIN5faiss14FaissExceptionE, ptr @_ZN5faiss14FaissExceptionD2Ev) #13
          to label %62 unwind label %34

34:                                               ; preds = %33, %27, %22
  %35 = landingpad { ptr, i32 }
          cleanup
  %36 = extractvalue { ptr, i32 } %35, 0
  store ptr %36, ptr %15, align 8
  %37 = extractvalue { ptr, i32 } %35, 1
  store i32 %37, ptr %16, align 4
  br label %42

38:                                               ; preds = %29
  %39 = landingpad { ptr, i32 }
          cleanup
  %40 = extractvalue { ptr, i32 } %39, 0
  store ptr %40, ptr %15, align 8
  %41 = extractvalue { ptr, i32 } %39, 1
  store i32 %41, ptr %16, align 4
  call void @__cxa_free_exception(ptr %32) #11
  br label %42

42:                                               ; preds = %38, %34
  call void @_ZNSt7__cxx1112basic_stringIcSt11char_traitsIcESaIcEED1Ev(ptr noundef nonnull align 8 dereferenceable(32) %13) #11
  br label %57

43:                                               ; No predecessors!
  br label %44

44:                                               ; preds = %43, %18
  br label %45

45:                                               ; preds = %44
  %46 = load ptr, ptr %9, align 8
  %47 = getelementptr inbounds %"struct.faiss::IndexBinaryFlat", ptr %17, i32 0, i32 1
  %48 = call noundef ptr @_ZNKSt6vectorIhSaIhEE4dataEv(ptr noundef nonnull align 8 dereferenceable(24) %47) #11
  %49 = load i64, ptr %8, align 8
  %50 = getelementptr inbounds %"struct.faiss::IndexBinary", ptr %17, i32 0, i32 3
  %51 = load i64, ptr %50, align 8
  %52 = load i32, ptr %10, align 4
  %53 = getelementptr inbounds %"struct.faiss::IndexBinary", ptr %17, i32 0, i32 2
  %54 = load i32, ptr %53, align 4
  %55 = sext i32 %54 to i64
  %56 = load ptr, ptr %11, align 8
  call void @_ZN5faiss20hamming_range_searchEPKhS1_mmimPNS_17RangeSearchResultE(ptr noundef %46, ptr noundef %48, i64 noundef %49, i64 noundef %51, i32 noundef %52, i64 noundef %55, ptr noundef %56)
  ret void

57:                                               ; preds = %42
  %58 = load ptr, ptr %15, align 8
  %59 = load i32, ptr %16, align 4
  %60 = insertvalue { ptr, i32 } poison, ptr %58, 0
  %61 = insertvalue { ptr, i32 } %60, i32 %59, 1
  resume { ptr, i32 } %61

62:                                               ; preds = %33
  unreachable
}