; Function Attrs: mustprogress uwtable
define void @_ZNK5faiss15IndexBinaryFlat12range_searchElPKhiPNS_17RangeSearchResultEPKNS_16SearchParametersE(ptr nocapture noundef nonnull readonly align 8 dereferenceable(76) %0, i64 noundef %1, ptr noundef %2, i32 noundef %3, ptr noundef %4, ptr noundef readnone %5) unnamed_addr #2 align 2 personality ptr @__gxx_personality_v0 {
  %7 = alloca %"class.std::__cxx11::basic_string", align 8
  %.not = icmp eq ptr %5, null
  br i1 %.not, label %24, label %8

8:                                                ; preds = %6
  call void @_ZNSt7__cxx1112basic_stringIcSt11char_traitsIcESaIcEEC1Ev(ptr noundef nonnull align 8 dereferenceable(32) %7) #15
  %9 = call i32 (ptr, i64, ptr, ...) @snprintf(ptr noundef null, i64 noundef 0, ptr noundef nonnull @.str.1, ptr noundef nonnull @.str.2) #15
  %10 = add nsw i32 %9, 1
  %11 = sext i32 %10 to i64
  invoke void @_ZNSt7__cxx1112basic_stringIcSt11char_traitsIcESaIcEE6resizeEm(ptr noundef nonnull align 8 dereferenceable(32) %7, i64 noundef %11)
          to label %12 unwind label %19

12:                                               ; preds = %8
  %13 = invoke noundef nonnull align 1 dereferenceable(1) ptr @_ZNSt7__cxx1112basic_stringIcSt11char_traitsIcESaIcEEixEm(ptr noundef nonnull align 8 dereferenceable(32) %7, i64 noundef 0)
          to label %14 unwind label %19

14:                                               ; preds = %12
  %15 = call noundef i64 @_ZNKSt7__cxx1112basic_stringIcSt11char_traitsIcESaIcEE4sizeEv(ptr noundef nonnull align 8 dereferenceable(32) %7) #15
  %16 = call i32 (ptr, i64, ptr, ...) @snprintf(ptr noundef nonnull %13, i64 noundef %15, ptr noundef nonnull @.str.1, ptr noundef nonnull @.str.2) #15
  %17 = call ptr @__cxa_allocate_exception(i64 40) #15
  invoke void @_ZN5faiss14FaissExceptionC1ERKNSt7__cxx1112basic_stringIcSt11char_traitsIcESaIcEEEPKcSA_i(ptr noundef nonnull align 8 dereferenceable(40) %17, ptr noundef nonnull align 8 dereferenceable(32) %7, ptr noundef nonnull @__PRETTY_FUNCTION__._ZNK5faiss15IndexBinaryFlat12range_searchElPKhiPNS_17RangeSearchResultEPKNS_16SearchParametersE, ptr noundef nonnull @.str.3, i32 noundef 112)
          to label %18 unwind label %21

18:                                               ; preds = %14
  invoke void @__cxa_throw(ptr nonnull %17, ptr nonnull @_ZTIN5faiss14FaissExceptionE, ptr nonnull @_ZN5faiss14FaissExceptionD2Ev) #16
          to label %32 unwind label %19

19:                                               ; preds = %18, %12, %8
  %20 = landingpad { ptr, i32 }
          cleanup
  br label %23

21:                                               ; preds = %14
  %22 = landingpad { ptr, i32 }
          cleanup
  call void @__cxa_free_exception(ptr %17) #15
  br label %23

23:                                               ; preds = %21, %19
  %.pn = phi { ptr, i32 } [ %20, %19 ], [ %22, %21 ]
  call void @_ZNSt7__cxx1112basic_stringIcSt11char_traitsIcESaIcEED1Ev(ptr noundef nonnull align 8 dereferenceable(32) %7) #15
  resume { ptr, i32 } %.pn

24:                                               ; preds = %6
  %25 = getelementptr inbounds i8, ptr %0, i64 32
  %26 = load ptr, ptr %25, align 8
  %27 = getelementptr inbounds i8, ptr %0, i64 16
  %28 = load i64, ptr %27, align 8
  %29 = getelementptr inbounds i8, ptr %0, i64 12
  %30 = load i32, ptr %29, align 4
  %31 = sext i32 %30 to i64
  tail call void @_ZN5faiss20hamming_range_searchEPKhS1_mmimPNS_17RangeSearchResultE(ptr noundef %2, ptr noundef %26, i64 noundef %1, i64 noundef %28, i32 noundef %3, i64 noundef %31, ptr noundef %4)
  ret void

32:                                               ; preds = %18
  unreachable
}